target datalayout = "e-m:e-p270:32:32-p271:32:32-p272:64:64-i64:64-i128:128-f80:128-n8:16:32:64-S128"
target triple = "x86_64-pc-linux-gnu"

%struct.cJSON = type { ptr, ptr, ptr, i32, ptr, i32, double, ptr }

; Function Attrs: nounwind sspstrong uwtable
define internal void @overwrite_item(ptr noundef %0, ptr noundef byval(%struct.cJSON) align 8 %1) #0 {
  %3 = alloca ptr, align 8
  store ptr %0, ptr %3, align 8, !tbaa !3
  %4 = load ptr, ptr %3, align 8, !tbaa !3
  %5 = icmp eq ptr %4, null
  br i1 %5, label %6, label %7

6:                                                ; preds = %2
  br label %36

7:                                                ; preds = %2
  %8 = load ptr, ptr %3, align 8, !tbaa !3
  %9 = getelementptr inbounds nuw %struct.cJSON, ptr %8, i32 0, i32 7
  %10 = load ptr, ptr %9, align 8, !tbaa !16
  %11 = icmp ne ptr %10, null
  br i1 %11, label %12, label %16

12:                                               ; preds = %7
  %13 = load ptr, ptr %3, align 8, !tbaa !3
  %14 = getelementptr inbounds nuw %struct.cJSON, ptr %13, i32 0, i32 7
  %15 = load ptr, ptr %14, align 8, !tbaa !16
  call void @cJSON_free(ptr noundef %15)
  br label %16

16:                                               ; preds = %12, %7
  %17 = load ptr, ptr %3, align 8, !tbaa !3
  %18 = getelementptr inbounds nuw %struct.cJSON, ptr %17, i32 0, i32 4
  %19 = load ptr, ptr %18, align 8, !tbaa !20
  %20 = icmp ne ptr %19, null
  br i1 %20, label %21, label %25

21:                                               ; preds = %16
  %22 = load ptr, ptr %3, align 8, !tbaa !3
  %23 = getelementptr inbounds nuw %struct.cJSON, ptr %22, i32 0, i32 4
  %24 = load ptr, ptr %23, align 8, !tbaa !20
  call void @cJSON_free(ptr noundef %24)
  br label %25

25:                                               ; preds = %21, %16
  %26 = load ptr, ptr %3, align 8, !tbaa !3
  %27 = getelementptr inbounds nuw %struct.cJSON, ptr %26, i32 0, i32 2
  %28 = load ptr, ptr %27, align 8, !tbaa !10
  %29 = icmp ne ptr %28, null
  br i1 %29, label %30, label %34

30:                                               ; preds = %25
  %31 = load ptr, ptr %3, align 8, !tbaa !3
  %32 = getelementptr inbounds nuw %struct.cJSON, ptr %31, i32 0, i32 2
  %33 = load ptr, ptr %32, align 8, !tbaa !10
  call void @cJSON_Delete(ptr noundef %33)
  br label %34

34:                                               ; preds = %30, %25
  %35 = load ptr, ptr %3, align 8, !tbaa !3
  call void @llvm.memcpy.p0.p0.i64(ptr align 8 %35, ptr align 8 %1, i64 64, i1 false)
  br label %36

36:                                               ; preds = %34, %6
  ret void
}