; Function Attrs: nounwind sspstrong uwtable
define internal fastcc void @overwrite_item(ptr noundef %0, ptr noundef readonly byval(%struct.cJSON) align 8 captures(none) %1) unnamed_addr #0 {
  %3 = icmp eq ptr %0, null
  br i1 %3, label %17, label %4

4:                                                ; preds = %2
  %5 = getelementptr inbounds nuw i8, ptr %0, i64 56
  %6 = load ptr, ptr %5, align 8, !tbaa !8
  %.not = icmp eq ptr %6, null
  br i1 %.not, label %8, label %7

7:                                                ; preds = %4
  tail call void @cJSON_free(ptr noundef nonnull %6) #13
  br label %8

8:                                                ; preds = %7, %4
  %9 = getelementptr inbounds nuw i8, ptr %0, i64 32
  %10 = load ptr, ptr %9, align 8, !tbaa !19
  %.not11 = icmp eq ptr %10, null
  br i1 %.not11, label %12, label %11

11:                                               ; preds = %8
  tail call void @cJSON_free(ptr noundef nonnull %10) #13
  br label %12

12:                                               ; preds = %11, %8
  %13 = getelementptr inbounds nuw i8, ptr %0, i64 16
  %14 = load ptr, ptr %13, align 8, !tbaa !17
  %.not12 = icmp eq ptr %14, null
  br i1 %.not12, label %16, label %15

15:                                               ; preds = %12
  tail call void @cJSON_Delete(ptr noundef nonnull %14) #13
  br label %16

16:                                               ; preds = %15, %12
  call void @llvm.memcpy.p0.p0.i64(ptr noundef nonnull align 8 dereferenceable(64) %0, ptr noundef nonnull align 8 dereferenceable(64) %1, i64 64, i1 false)
  br label %17

17:                                               ; preds = %2, %16
  ret void
}